target datalayout = "e-m:e-p270:32:32-p271:32:32-p272:64:64-i64:64-i128:128-f80:128-n8:16:32:64-S128"
target triple = "x86_64-unknown-linux-gnu"

%"struct.icu_75::CollationSettings" = type <{ %"class.icu_75::SharedObject", i32, i32, ptr, i32, [4 x i8], ptr, i32, [4 x i8], ptr, i32, i32, i32, [384 x i16], [4 x i8] }>
%"class.icu_75::SharedObject" = type { %"class.icu_75::UObject", i32, %"struct.std::atomic", ptr }
%"class.icu_75::UObject" = type { ptr }
%"struct.std::atomic" = type { %"struct.std::__atomic_base" }
%"struct.std::__atomic_base" = type { i32 }

@_ZTVN6icu_7517CollationSettingsE = unnamed_addr constant { [5 x ptr] } { [5 x ptr] [ptr null, ptr @_ZTIN6icu_7517CollationSettingsE, ptr @_ZN6icu_7517CollationSettingsD1Ev, ptr @_ZN6icu_7517CollationSettingsD0Ev, ptr @_ZNK6icu_757UObject17getDynamicClassIDEv] }, align 8
@_ZTVN6icu_7512SharedObjectE = external unnamed_addr constant { [5 x ptr] }, align 8
@_ZTVN6icu_757UObjectE = external unnamed_addr constant { [5 x ptr] }, align 8

; Function Attrs: mustprogress nounwind uwtable
define linkonce_odr void @_ZNSt13__atomic_baseIiEC2Ei(ptr noundef nonnull align 4 dereferenceable(4) %this, i32 noundef %__i) unnamed_addr #1 comdat align 2 {
entry:
  %this.addr = alloca ptr, align 8
  %__i.addr = alloca i32, align 4
  store ptr %this, ptr %this.addr, align 8
  store i32 %__i, ptr %__i.addr, align 4
  %this1 = load ptr, ptr %this.addr, align 8
  %_M_i = getelementptr inbounds %"struct.std::__atomic_base", ptr %this1, i32 0, i32 0
  %0 = load i32, ptr %__i.addr, align 4
  store i32 %0, ptr %_M_i, align 4
  ret void
}

; Function Attrs: mustprogress nounwind uwtable
define linkonce_odr void @_ZNSt6atomicIiEC2Ei(ptr noundef nonnull align 4 dereferenceable(4) %this, i32 noundef %__i) unnamed_addr #1 comdat align 2 {
entry:
  %this.addr = alloca ptr, align 8
  %__i.addr = alloca i32, align 4
  store ptr %this, ptr %this.addr, align 8
  store i32 %__i, ptr %__i.addr, align 4
  %this1 = load ptr, ptr %this.addr, align 8
  %0 = load i32, ptr %__i.addr, align 4
  call void @_ZNSt13__atomic_baseIiEC2Ei(ptr noundef nonnull align 4 dereferenceable(4) %this1, i32 noundef %0) #7
  ret void
}

; Function Attrs: mustprogress nounwind uwtable
define linkonce_odr void @_ZN6icu_757UObjectC2ERKS0_(ptr noundef nonnull align 8 dereferenceable(8) %this, ptr noundef nonnull align 8 dereferenceable(8) %0) unnamed_addr #1 comdat align 2 {
entry:
  %this.addr = alloca ptr, align 8
  %.addr = alloca ptr, align 8
  store ptr %this, ptr %this.addr, align 8
  store ptr %0, ptr %.addr, align 8
  %this1 = load ptr, ptr %this.addr, align 8
  store ptr getelementptr inbounds ({ [5 x ptr] }, ptr @_ZTVN6icu_757UObjectE, i32 0, i32 0, i32 2), ptr %this1, align 8
  ret void
}

; Function Attrs: mustprogress nounwind uwtable
define linkonce_odr void @_ZN6icu_7512SharedObjectC2ERKS0_(ptr noundef nonnull align 8 dereferenceable(24) %this, ptr noundef nonnull align 8 dereferenceable(24) %other) unnamed_addr #1 comdat align 2 {
entry:
  %this.addr = alloca ptr, align 8
  %other.addr = alloca ptr, align 8
  store ptr %this, ptr %this.addr, align 8
  store ptr %other, ptr %other.addr, align 8
  %this1 = load ptr, ptr %this.addr, align 8
  %0 = load ptr, ptr %other.addr, align 8
  call void @_ZN6icu_757UObjectC2ERKS0_(ptr noundef nonnull align 8 dereferenceable(8) %this1, ptr noundef nonnull align 8 dereferenceable(8) %0) #7
  store ptr getelementptr inbounds ({ [5 x ptr] }, ptr @_ZTVN6icu_7512SharedObjectE, i32 0, i32 0, i32 2), ptr %this1, align 8
  %softRefCount = getelementptr inbounds %"class.icu_75::SharedObject", ptr %this1, i32 0, i32 1
  store i32 0, ptr %softRefCount, align 8
  %hardRefCount = getelementptr inbounds %"class.icu_75::SharedObject", ptr %this1, i32 0, i32 2
  call void @_ZNSt6atomicIiEC2Ei(ptr noundef nonnull align 4 dereferenceable(4) %hardRefCount, i32 noundef 0) #7
  %cachePtr = getelementptr inbounds %"class.icu_75::SharedObject", ptr %this1, i32 0, i32 3
  store ptr null, ptr %cachePtr, align 8
  ret void
}

; Function Attrs: mustprogress uwtable
define void @_ZN6icu_7517CollationSettingsC2ERKS0_(ptr noundef nonnull align 8 dereferenceable(852) %this, ptr noundef nonnull align 8 dereferenceable(852) %other) unnamed_addr #0 align 2 personality ptr @__gxx_personality_v0 {
entry:
  %this.addr = alloca ptr, align 8
  %other.addr = alloca ptr, align 8
  %errorCode = alloca i32, align 4
  %exn.slot = alloca ptr, align 8
  %ehselector.slot = alloca i32, align 4
  store ptr %this, ptr %this.addr, align 8
  store ptr %other, ptr %other.addr, align 8
  %this1 = load ptr, ptr %this.addr, align 8
  %0 = load ptr, ptr %other.addr, align 8
  call void @_ZN6icu_7512SharedObjectC2ERKS0_(ptr noundef nonnull align 8 dereferenceable(24) %this1, ptr noundef nonnull align 8 dereferenceable(24) %0)
  store ptr getelementptr inbounds ({ [5 x ptr] }, ptr @_ZTVN6icu_7517CollationSettingsE, i32 0, i32 0, i32 2), ptr %this1, align 8
  %options = getelementptr inbounds %"struct.icu_75::CollationSettings", ptr %this1, i32 0, i32 1
  %1 = load ptr, ptr %other.addr, align 8
  %options2 = getelementptr inbounds %"struct.icu_75::CollationSettings", ptr %1, i32 0, i32 1
  %2 = load i32, ptr %options2, align 8
  store i32 %2, ptr %options, align 8
  %variableTop = getelementptr inbounds %"struct.icu_75::CollationSettings", ptr %this1, i32 0, i32 2
  %3 = load ptr, ptr %other.addr, align 8
  %variableTop3 = getelementptr inbounds %"struct.icu_75::CollationSettings", ptr %3, i32 0, i32 2
  %4 = load i32, ptr %variableTop3, align 4
  store i32 %4, ptr %variableTop, align 4
  %reorderTable = getelementptr inbounds %"struct.icu_75::CollationSettings", ptr %this1, i32 0, i32 3
  store ptr null, ptr %reorderTable, align 8
  %minHighNoReorder = getelementptr inbounds %"struct.icu_75::CollationSettings", ptr %this1, i32 0, i32 4
  %5 = load ptr, ptr %other.addr, align 8
  %minHighNoReorder4 = getelementptr inbounds %"struct.icu_75::CollationSettings", ptr %5, i32 0, i32 4
  %6 = load i32, ptr %minHighNoReorder4, align 8
  store i32 %6, ptr %minHighNoReorder, align 8
  %reorderRanges = getelementptr inbounds %"struct.icu_75::CollationSettings", ptr %this1, i32 0, i32 6
  store ptr null, ptr %reorderRanges, align 8
  %reorderRangesLength = getelementptr inbounds %"struct.icu_75::CollationSettings", ptr %this1, i32 0, i32 7
  store i32 0, ptr %reorderRangesLength, align 8
  %reorderCodes = getelementptr inbounds %"struct.icu_75::CollationSettings", ptr %this1, i32 0, i32 9
  store ptr null, ptr %reorderCodes, align 8
  %reorderCodesLength = getelementptr inbounds %"struct.icu_75::CollationSettings", ptr %this1, i32 0, i32 10
  store i32 0, ptr %reorderCodesLength, align 8
  %reorderCodesCapacity = getelementptr inbounds %"struct.icu_75::CollationSettings", ptr %this1, i32 0, i32 11
  store i32 0, ptr %reorderCodesCapacity, align 4
  %fastLatinOptions = getelementptr inbounds %"struct.icu_75::CollationSettings", ptr %this1, i32 0, i32 12
  %7 = load ptr, ptr %other.addr, align 8
  %fastLatinOptions5 = getelementptr inbounds %"struct.icu_75::CollationSettings", ptr %7, i32 0, i32 12
  %8 = load i32, ptr %fastLatinOptions5, align 8
  store i32 %8, ptr %fastLatinOptions, align 8
  store i32 0, ptr %errorCode, align 4
  %9 = load ptr, ptr %other.addr, align 8
  invoke void @_ZN6icu_7517CollationSettings18copyReorderingFromERKS0_R10UErrorCode(ptr noundef nonnull align 8 dereferenceable(852) %this1, ptr noundef nonnull align 8 dereferenceable(852) %9, ptr noundef nonnull align 4 dereferenceable(4) %errorCode)
          to label %invoke.cont unwind label %lpad

invoke.cont:                                      ; preds = %entry
  %fastLatinOptions6 = getelementptr inbounds %"struct.icu_75::CollationSettings", ptr %this1, i32 0, i32 12
  %10 = load i32, ptr %fastLatinOptions6, align 8
  %cmp = icmp sge i32 %10, 0
  br i1 %cmp, label %if.then, label %if.end

if.then:                                          ; preds = %invoke.cont
  br label %do.body

do.body:                                          ; preds = %if.then
  %fastLatinPrimaries = getelementptr inbounds %"struct.icu_75::CollationSettings", ptr %this1, i32 0, i32 13
  %arraydecay = getelementptr inbounds [384 x i16], ptr %fastLatinPrimaries, i64 0, i64 0
  %11 = load ptr, ptr %other.addr, align 8
  %fastLatinPrimaries7 = getelementptr inbounds %"struct.icu_75::CollationSettings", ptr %11, i32 0, i32 13
  %arraydecay8 = getelementptr inbounds [384 x i16], ptr %fastLatinPrimaries7, i64 0, i64 0
  call void @llvm.memcpy.p0.p0.i64(ptr align 4 %arraydecay, ptr align 4 %arraydecay8, i64 768, i1 false)
  br label %do.cond

do.cond:                                          ; preds = %do.body
  br label %do.end

do.end:                                           ; preds = %do.cond
  br label %if.end

lpad:                                             ; preds = %entry
  %12 = landingpad { ptr, i32 }
          cleanup
  %13 = extractvalue { ptr, i32 } %12, 0
  store ptr %13, ptr %exn.slot, align 8
  %14 = extractvalue { ptr, i32 } %12, 1
  store i32 %14, ptr %ehselector.slot, align 4
  call void @_ZN6icu_7512SharedObjectD2Ev(ptr noundef nonnull align 8 dereferenceable(24) %this1) #7
  br label %eh.resume

if.end:                                           ; preds = %do.end, %invoke.cont
  ret void

eh.resume:                                        ; preds = %lpad
  %exn = load ptr, ptr %exn.slot, align 8
  %sel = load i32, ptr %ehselector.slot, align 4
  %lpad.val = insertvalue { ptr, i32 } poison, ptr %exn, 0
  %lpad.val9 = insertvalue { ptr, i32 } %lpad.val, i32 %sel, 1
  resume { ptr, i32 } %lpad.val9
}