; Function Attrs: mustprogress uwtable
define void @_ZN6icu_7517CollationSettingsC2ERKS0_(ptr noundef nonnull align 8 dereferenceable(852) %this, ptr nocapture noundef nonnull readonly align 8 dereferenceable(852) %other) unnamed_addr #0 align 2 personality ptr @__gxx_personality_v0 {
entry:
  %errorCode = alloca i32, align 4
  %softRefCount.i = getelementptr inbounds i8, ptr %this, i64 8
  tail call void @llvm.memset.p0.i64(ptr noundef nonnull align 8 dereferenceable(16) %softRefCount.i, i8 0, i64 16, i1 false)
  store ptr getelementptr inbounds ({ [5 x ptr] }, ptr @_ZTVN6icu_7517CollationSettingsE, i64 0, i32 0, i64 2), ptr %this, align 8
  %options = getelementptr inbounds i8, ptr %this, i64 24
  %options2 = getelementptr inbounds i8, ptr %other, i64 24
  %0 = load i32, ptr %options2, align 8
  store i32 %0, ptr %options, align 8
  %variableTop = getelementptr inbounds i8, ptr %this, i64 28
  %variableTop3 = getelementptr inbounds i8, ptr %other, i64 28
  %1 = load i32, ptr %variableTop3, align 4
  store i32 %1, ptr %variableTop, align 4
  %reorderTable = getelementptr inbounds i8, ptr %this, i64 32
  store ptr null, ptr %reorderTable, align 8
  %minHighNoReorder = getelementptr inbounds i8, ptr %this, i64 40
  %minHighNoReorder4 = getelementptr inbounds i8, ptr %other, i64 40
  %2 = load i32, ptr %minHighNoReorder4, align 8
  store i32 %2, ptr %minHighNoReorder, align 8
  %reorderRanges = getelementptr inbounds i8, ptr %this, i64 48
  store ptr null, ptr %reorderRanges, align 8
  %reorderRangesLength = getelementptr inbounds i8, ptr %this, i64 56
  store i32 0, ptr %reorderRangesLength, align 8
  %reorderCodes = getelementptr inbounds i8, ptr %this, i64 64
  %fastLatinOptions = getelementptr inbounds i8, ptr %this, i64 80
  %fastLatinOptions5 = getelementptr inbounds i8, ptr %other, i64 80
  tail call void @llvm.memset.p0.i64(ptr noundef nonnull align 8 dereferenceable(16) %reorderCodes, i8 0, i64 16, i1 false)
  %3 = load i32, ptr %fastLatinOptions5, align 8
  store i32 %3, ptr %fastLatinOptions, align 8
  store i32 0, ptr %errorCode, align 4
  invoke void @_ZN6icu_7517CollationSettings18copyReorderingFromERKS0_R10UErrorCode(ptr noundef nonnull align 8 dereferenceable(852) %this, ptr noundef nonnull align 8 dereferenceable(852) %other, ptr noundef nonnull align 4 dereferenceable(4) %errorCode)
          to label %invoke.cont unwind label %lpad

invoke.cont:                                      ; preds = %entry
  %4 = load i32, ptr %fastLatinOptions, align 8
  %cmp = icmp sgt i32 %4, -1
  br i1 %cmp, label %do.body, label %if.end

do.body:                                          ; preds = %invoke.cont
  %fastLatinPrimaries = getelementptr inbounds i8, ptr %this, i64 84
  %fastLatinPrimaries7 = getelementptr inbounds i8, ptr %other, i64 84
  tail call void @llvm.memcpy.p0.p0.i64(ptr noundef nonnull align 4 dereferenceable(768) %fastLatinPrimaries, ptr noundef nonnull align 4 dereferenceable(768) %fastLatinPrimaries7, i64 768, i1 false)
  br label %if.end

lpad:                                             ; preds = %entry
  %5 = landingpad { ptr, i32 }
          cleanup
  tail call void @_ZN6icu_7512SharedObjectD2Ev(ptr noundef nonnull align 8 dereferenceable(24) %this) #13
  resume { ptr, i32 } %5

if.end:                                           ; preds = %do.body, %invoke.cont
  ret void
}